; Function Attrs: nounwind uwtable
define i32 @Pdr_ManFreeVar(ptr noundef readonly captures(none) %0, i32 noundef %1) local_unnamed_addr #0 {
  %3 = load ptr, ptr %0, align 8, !tbaa !68
  %4 = getelementptr inbounds nuw i8, ptr %3, i64 40
  %5 = load i32, ptr %4, align 8, !tbaa !69
  %.not = icmp eq i32 %5, 0
  br i1 %.not, label %13, label %6

6:                                                ; preds = %2
  %7 = getelementptr i8, ptr %0, i64 104
  %.val8 = load ptr, ptr %7, align 8, !tbaa !32
  %8 = getelementptr i8, ptr %.val8, i64 8
  %.val8.val = load ptr, ptr %8, align 8, !tbaa !33
  %9 = sext i32 %1 to i64
  %10 = getelementptr inbounds ptr, ptr %.val8.val, i64 %9
  %11 = load ptr, ptr %10, align 8, !tbaa !34
  %12 = tail call i32 @sat_solver_nvars(ptr noundef %11) #10
  br label %50

13:                                               ; preds = %2
  %14 = getelementptr i8, ptr %0, i64 72
  %.val7 = load ptr, ptr %14, align 8, !tbaa !33
  %15 = sext i32 %1 to i64
  %16 = getelementptr inbounds ptr, ptr %.val7, i64 %15
  %17 = load ptr, ptr %16, align 8, !tbaa !34
  %18 = getelementptr inbounds nuw i8, ptr %17, i64 4
  %19 = load i32, ptr %18, align 4, !tbaa !27
  %20 = load i32, ptr %17, align 8, !tbaa !29
  %21 = icmp eq i32 %19, %20
  br i1 %21, label %22, label %.Vec_IntGrow.exit10_crit_edge.i

.Vec_IntGrow.exit10_crit_edge.i:                  ; preds = %13
  %.phi.trans.insert.i = getelementptr inbounds nuw i8, ptr %17, i64 8
  %.pre.i = load ptr, ptr %.phi.trans.insert.i, align 8, !tbaa !30
  br label %Vec_IntPush.exit

22:                                               ; preds = %13
  %23 = icmp slt i32 %19, 16
  br i1 %23, label %24, label %32

24:                                               ; preds = %22
  %25 = getelementptr inbounds nuw i8, ptr %17, i64 8
  %26 = load ptr, ptr %25, align 8, !tbaa !30
  %.not9.i.i = icmp eq ptr %26, null
  br i1 %.not9.i.i, label %29, label %27

27:                                               ; preds = %24
  %28 = tail call dereferenceable_or_null(64) ptr @realloc(ptr noundef nonnull %26, i64 noundef 64) #8
  br label %Vec_IntGrow.exit.i

29:                                               ; preds = %24
  %30 = tail call noalias dereferenceable_or_null(64) ptr @malloc(i64 noundef 64) #9
  br label %Vec_IntGrow.exit.i

Vec_IntGrow.exit.i:                               ; preds = %29, %27
  %31 = phi ptr [ %28, %27 ], [ %30, %29 ]
  store ptr %31, ptr %25, align 8, !tbaa !30
  store i32 16, ptr %17, align 8, !tbaa !29
  br label %Vec_IntPush.exit

32:                                               ; preds = %22
  %33 = shl nuw nsw i32 %19, 1
  %34 = getelementptr inbounds nuw i8, ptr %17, i64 8
  %35 = load ptr, ptr %34, align 8, !tbaa !30
  %.not9.i9.i = icmp eq ptr %35, null
  %36 = zext nneg i32 %33 to i64
  %37 = shl nuw nsw i64 %36, 2
  br i1 %.not9.i9.i, label %40, label %38

38:                                               ; preds = %32
  %39 = tail call ptr @realloc(ptr noundef nonnull %35, i64 noundef %37) #8
  br label %42

40:                                               ; preds = %32
  %41 = tail call noalias ptr @malloc(i64 noundef %37) #9
  br label %42

42:                                               ; preds = %40, %38
  %43 = phi ptr [ %39, %38 ], [ %41, %40 ]
  store ptr %43, ptr %34, align 8, !tbaa !30
  store i32 %33, ptr %17, align 8, !tbaa !29
  br label %Vec_IntPush.exit

Vec_IntPush.exit:                                 ; preds = %.Vec_IntGrow.exit10_crit_edge.i, %Vec_IntGrow.exit.i, %42
  %44 = phi ptr [ %.pre.i, %.Vec_IntGrow.exit10_crit_edge.i ], [ %43, %42 ], [ %31, %Vec_IntGrow.exit.i ]
  %45 = load i32, ptr %18, align 4, !tbaa !27
  %46 = add nsw i32 %45, 1
  store i32 %46, ptr %18, align 4, !tbaa !27
  %47 = sext i32 %45 to i64
  %48 = getelementptr inbounds i32, ptr %44, i64 %47
  store i32 -1, ptr %48, align 4, !tbaa !31
  %.val = load i32, ptr %18, align 4, !tbaa !27
  %49 = add nsw i32 %.val, -1
  br label %50

50:                                               ; preds = %Vec_IntPush.exit, %6
  %.0 = phi i32 [ %12, %6 ], [ %49, %Vec_IntPush.exit ]
  ret i32 %.0
}